target datalayout = "e-m:e-p270:32:32-p271:32:32-p272:64:64-i64:64-i128:128-f80:128-n8:16:32:64-S128"
target triple = "x86_64-pc-linux-gnu"

%"struct.cv::detail::CheckContext" = type { ptr, ptr, i32, i32, ptr, ptr, ptr }
%"class.cv::Mat" = type { i32, i32, i32, i32, ptr, ptr, ptr, ptr, ptr, ptr, %"struct.cv::MatSize", %"struct.cv::MatStep" }
%"struct.cv::MatSize" = type { ptr }
%"struct.cv::MatStep" = type { ptr, [2 x i64] }
%"class.cv::Size_" = type { i32, i32 }

@_ZZN2cv19getContinuousSize2DERNS_3MatEiE16__cv_check__1299 = internal constant %"struct.cv::detail::CheckContext" { ptr @.str.46, ptr @.str.1, i32 1299, i32 3, ptr @.str.11, ptr @.str.47, ptr @.str.48 }, align 8

; Function Attrs: inlinehint mustprogress nounwind uwtable
define linkonce_odr hidden void @_ZN2cv5Size_IiEC2Eii(ptr noundef nonnull align 4 dereferenceable(8) %0, i32 noundef %1, i32 noundef %2) unnamed_addr #6 comdat align 2 {
  %4 = alloca ptr, align 8
  %5 = alloca i32, align 4
  %6 = alloca i32, align 4
  store ptr %0, ptr %4, align 8, !tbaa !142
  store i32 %1, ptr %5, align 4, !tbaa !26
  store i32 %2, ptr %6, align 4, !tbaa !26
  %7 = load ptr, ptr %4, align 8
  %8 = getelementptr inbounds nuw %"class.cv::Size_", ptr %7, i32 0, i32 0
  %9 = load i32, ptr %5, align 4, !tbaa !26
  store i32 %9, ptr %8, align 4, !tbaa !99
  %10 = getelementptr inbounds nuw %"class.cv::Size_", ptr %7, i32 0, i32 1
  %11 = load i32, ptr %6, align 4, !tbaa !26
  store i32 %11, ptr %10, align 4, !tbaa !97
  ret void
}

; Function Attrs: inlinehint mustprogress uwtable
define internal i64 @_ZN2cvL18getContinuousSize_Eiiii(i32 noundef %0, i32 noundef %1, i32 noundef %2, i32 noundef %3) #10 {
  %5 = alloca %"class.cv::Size_", align 4
  %6 = alloca i32, align 4
  %7 = alloca i32, align 4
  %8 = alloca i32, align 4
  %9 = alloca i32, align 4
  %10 = alloca i64, align 8
  %11 = alloca i8, align 1
  %12 = alloca i8, align 1
  store i32 %0, ptr %6, align 4, !tbaa !26
  store i32 %1, ptr %7, align 4, !tbaa !26
  store i32 %2, ptr %8, align 4, !tbaa !26
  store i32 %3, ptr %9, align 4, !tbaa !26
  call void @llvm.lifetime.start.p0(i64 8, ptr %10) #7
  %13 = load i32, ptr %7, align 4, !tbaa !26
  %14 = sext i32 %13 to i64
  %15 = load i32, ptr %8, align 4, !tbaa !26
  %16 = sext i32 %15 to i64
  %17 = mul nsw i64 %14, %16
  %18 = load i32, ptr %9, align 4, !tbaa !26
  %19 = sext i32 %18 to i64
  %20 = mul nsw i64 %17, %19
  store i64 %20, ptr %10, align 8, !tbaa !31
  call void @llvm.lifetime.start.p0(i64 1, ptr %11) #7
  %21 = load i64, ptr %10, align 8, !tbaa !31
  %22 = icmp sge i64 %21, 2147483647
  %23 = zext i1 %22 to i8
  store i8 %23, ptr %11, align 1, !tbaa !49
  call void @llvm.lifetime.start.p0(i64 1, ptr %12) #7
  %24 = load i32, ptr %6, align 4, !tbaa !26
  %25 = and i32 %24, 16384
  %26 = icmp ne i32 %25, 0
  %27 = zext i1 %26 to i8
  store i8 %27, ptr %12, align 1, !tbaa !49
  %28 = load i8, ptr %12, align 1, !tbaa !49, !range !80, !noundef !81
  %29 = trunc i8 %28 to i1
  br i1 %29, label %30, label %36

30:                                               ; preds = %4
  %31 = load i8, ptr %11, align 1, !tbaa !49, !range !80, !noundef !81
  %32 = trunc i8 %31 to i1
  br i1 %32, label %36, label %33

33:                                               ; preds = %30
  %34 = load i64, ptr %10, align 8, !tbaa !31
  %35 = trunc i64 %34 to i32
  call void @_ZN2cv5Size_IiEC2Eii(ptr noundef nonnull align 4 dereferenceable(8) %5, i32 noundef %35, i32 noundef 1)
  br label %41

36:                                               ; preds = %30, %4
  %37 = load i32, ptr %7, align 4, !tbaa !26
  %38 = load i32, ptr %9, align 4, !tbaa !26
  %39 = mul nsw i32 %37, %38
  %40 = load i32, ptr %8, align 4, !tbaa !26
  call void @_ZN2cv5Size_IiEC2Eii(ptr noundef nonnull align 4 dereferenceable(8) %5, i32 noundef %39, i32 noundef %40)
  br label %41

41:                                               ; preds = %36, %33
  call void @llvm.lifetime.end.p0(i64 1, ptr %12) #7
  call void @llvm.lifetime.end.p0(i64 1, ptr %11) #7
  call void @llvm.lifetime.end.p0(i64 8, ptr %10) #7
  %42 = load i64, ptr %5, align 4
  ret i64 %42
}

; Function Attrs: mustprogress uwtable
define hidden i64 @_ZN2cv19getContinuousSize2DERNS_3MatEi(ptr noundef nonnull align 8 dereferenceable(96) %0, i32 noundef %1) #1 {
  %3 = alloca %"class.cv::Size_", align 4
  %4 = alloca ptr, align 8
  %5 = alloca i32, align 4
  store ptr %0, ptr %4, align 8, !tbaa !34
  store i32 %1, ptr %5, align 4, !tbaa !26
  br label %6

6:                                                ; preds = %2
  %7 = load ptr, ptr %4, align 8, !tbaa !34
  %8 = getelementptr inbounds nuw %"class.cv::Mat", ptr %7, i32 0, i32 1
  %9 = load i32, ptr %8, align 4, !tbaa !72
  %10 = icmp sle i32 %9, 2
  br i1 %10, label %11, label %12

11:                                               ; preds = %6
  br label %16

12:                                               ; preds = %6
  %13 = load ptr, ptr %4, align 8, !tbaa !34
  %14 = getelementptr inbounds nuw %"class.cv::Mat", ptr %13, i32 0, i32 1
  %15 = load i32, ptr %14, align 4, !tbaa !72
  call void @_ZN2cv6detail17check_failed_autoEiiRKNS0_12CheckContextE(i32 noundef %15, i32 noundef 2, ptr noundef nonnull align 8 dereferenceable(48) @_ZZN2cv19getContinuousSize2DERNS_3MatEiE16__cv_check__1299) #17
  unreachable

16:                                               ; preds = %11
  br label %17

17:                                               ; preds = %16
  %18 = load ptr, ptr %4, align 8, !tbaa !34
  %19 = getelementptr inbounds nuw %"class.cv::Mat", ptr %18, i32 0, i32 0
  %20 = load i32, ptr %19, align 8, !tbaa !79
  %21 = load ptr, ptr %4, align 8, !tbaa !34
  %22 = getelementptr inbounds nuw %"class.cv::Mat", ptr %21, i32 0, i32 3
  %23 = load i32, ptr %22, align 4, !tbaa !77
  %24 = load ptr, ptr %4, align 8, !tbaa !34
  %25 = getelementptr inbounds nuw %"class.cv::Mat", ptr %24, i32 0, i32 2
  %26 = load i32, ptr %25, align 8, !tbaa !78
  %27 = load i32, ptr %5, align 4, !tbaa !26
  %28 = call i64 @_ZN2cvL18getContinuousSize_Eiiii(i32 noundef %20, i32 noundef %23, i32 noundef %26, i32 noundef %27)
  store i64 %28, ptr %3, align 4
  %29 = load i64, ptr %3, align 4
  ret i64 %29
}