; Function Attrs: mustprogress uwtable
define hidden i64 @_ZN2cv19getContinuousSize2DERNS_3MatEi(ptr noundef nonnull readonly align 8 captures(none) dereferenceable(96) %0, i32 noundef %1) local_unnamed_addr #1 {
  %3 = getelementptr inbounds nuw i8, ptr %0, i64 4
  %4 = load i32, ptr %3, align 4, !tbaa !53
  %5 = icmp slt i32 %4, 3
  br i1 %5, label %7, label %6

6:                                                ; preds = %2
  tail call void @_ZN2cv6detail17check_failed_autoEiiRKNS0_12CheckContextE(i32 noundef %4, i32 noundef 2, ptr noundef nonnull align 8 dereferenceable(48) @_ZZN2cv19getContinuousSize2DERNS_3MatEiE16__cv_check__1299) #25
  unreachable

7:                                                ; preds = %2
  %8 = load i32, ptr %0, align 8, !tbaa !61
  %9 = getelementptr inbounds nuw i8, ptr %0, i64 12
  %10 = load i32, ptr %9, align 4, !tbaa !59
  %11 = getelementptr inbounds nuw i8, ptr %0, i64 8
  %12 = load i32, ptr %11, align 8, !tbaa !60
  %13 = sext i32 %10 to i64
  %14 = sext i32 %12 to i64
  %15 = sext i32 %1 to i64
  %16 = mul nsw i64 %13, %15
  %17 = mul i64 %16, %14
  %18 = and i32 %8, 16384
  %.not.i = icmp eq i32 %18, 0
  %19 = icmp sgt i64 %17, 2147483646
  %or.cond.i = select i1 %.not.i, i1 true, i1 %19
  %20 = mul nsw i32 %10, %1
  %21 = trunc i64 %17 to i32
  %.sroa.0.0.i = select i1 %or.cond.i, i32 %20, i32 %21
  %22 = zext i32 %12 to i64
  %23 = shl nuw i64 %22, 32
  %.sroa.3.0.insert.shift.i = select i1 %or.cond.i, i64 %23, i64 4294967296
  %.sroa.0.0.insert.ext.i = zext i32 %.sroa.0.0.i to i64
  %.sroa.0.0.insert.insert.i = or disjoint i64 %.sroa.3.0.insert.shift.i, %.sroa.0.0.insert.ext.i
  ret i64 %.sroa.0.0.insert.insert.i
}